target datalayout = "e-m:e-p270:32:32-p271:32:32-p272:64:64-i64:64-i128:128-f80:128-n8:16:32:64-S128"
target triple = "x86_64-pc-linux-gnu"

; Function Attrs: inlinehint nounwind uwtable
define internal i32 @ZSTD_countLeadingZeros32(i32 noundef %0) #3 {
  %2 = alloca i32, align 4
  store i32 %0, ptr %2, align 4, !tbaa !10
  %3 = load i32, ptr %2, align 4, !tbaa !10
  %4 = call i32 @llvm.ctlz.i32(i32 %3, i1 true)
  ret i32 %4
}

; Function Attrs: inlinehint nounwind uwtable
define internal i32 @ZSTD_countLeadingZeros64(i64 noundef %0) #3 {
  %2 = alloca i64, align 8
  store i64 %0, ptr %2, align 8, !tbaa !26
  %3 = load i64, ptr %2, align 8, !tbaa !26
  %4 = call i64 @llvm.ctlz.i64(i64 %3, i1 true)
  %5 = trunc i64 %4 to i32
  ret i32 %5
}

; Function Attrs: inlinehint nounwind uwtable
define internal i32 @ZSTD_countTrailingZeros32(i32 noundef %0) #3 {
  %2 = alloca i32, align 4
  store i32 %0, ptr %2, align 4, !tbaa !10
  %3 = load i32, ptr %2, align 4, !tbaa !10
  %4 = call i32 @llvm.cttz.i32(i32 %3, i1 true)
  ret i32 %4
}

; Function Attrs: inlinehint nounwind uwtable
define internal i32 @ZSTD_countTrailingZeros64(i64 noundef %0) #3 {
  %2 = alloca i64, align 8
  store i64 %0, ptr %2, align 8, !tbaa !26
  %3 = load i64, ptr %2, align 8, !tbaa !26
  %4 = call i64 @llvm.cttz.i64(i64 %3, i1 true)
  %5 = trunc i64 %4 to i32
  ret i32 %5
}

; Function Attrs: inlinehint nounwind uwtable
define internal i32 @MEM_isLittleEndian() #3 {
  ret i32 1
}

; Function Attrs: inlinehint nounwind uwtable
define internal zeroext i16 @MEM_read16(ptr noundef %0) #3 {
  %2 = alloca ptr, align 8
  store ptr %0, ptr %2, align 8, !tbaa !9
  %3 = load ptr, ptr %2, align 8, !tbaa !9
  %4 = load i16, ptr %3, align 1, !tbaa !54
  ret i16 %4
}

; Function Attrs: inlinehint nounwind uwtable
define internal i32 @MEM_read32(ptr noundef %0) #3 {
  %2 = alloca ptr, align 8
  store ptr %0, ptr %2, align 8, !tbaa !9
  %3 = load ptr, ptr %2, align 8, !tbaa !9
  %4 = load i32, ptr %3, align 1, !tbaa !10
  ret i32 %4
}

; Function Attrs: inlinehint nounwind uwtable
define internal i32 @MEM_64bits() #3 {
  ret i32 1
}

; Function Attrs: inlinehint nounwind uwtable
define internal i32 @ZSTD_NbCommonBytes(i64 noundef %0) #3 {
  %2 = alloca i32, align 4
  %3 = alloca i64, align 8
  store i64 %0, ptr %3, align 8, !tbaa !26
  %4 = call i32 @MEM_isLittleEndian()
  %5 = icmp ne i32 %4, 0
  br i1 %5, label %6, label %18

6:                                                ; preds = %1
  %7 = call i32 @MEM_64bits()
  %8 = icmp ne i32 %7, 0
  br i1 %8, label %9, label %13

9:                                                ; preds = %6
  %10 = load i64, ptr %3, align 8, !tbaa !26
  %11 = call i32 @ZSTD_countTrailingZeros64(i64 noundef %10)
  %12 = lshr i32 %11, 3
  store i32 %12, ptr %2, align 4
  br label %30

13:                                               ; preds = %6
  %14 = load i64, ptr %3, align 8, !tbaa !26
  %15 = trunc i64 %14 to i32
  %16 = call i32 @ZSTD_countTrailingZeros32(i32 noundef %15)
  %17 = lshr i32 %16, 3
  store i32 %17, ptr %2, align 4
  br label %30

18:                                               ; preds = %1
  %19 = call i32 @MEM_64bits()
  %20 = icmp ne i32 %19, 0
  br i1 %20, label %21, label %25

21:                                               ; preds = %18
  %22 = load i64, ptr %3, align 8, !tbaa !26
  %23 = call i32 @ZSTD_countLeadingZeros64(i64 noundef %22)
  %24 = lshr i32 %23, 3
  store i32 %24, ptr %2, align 4
  br label %30

25:                                               ; preds = %18
  %26 = load i64, ptr %3, align 8, !tbaa !26
  %27 = trunc i64 %26 to i32
  %28 = call i32 @ZSTD_countLeadingZeros32(i32 noundef %27)
  %29 = lshr i32 %28, 3
  store i32 %29, ptr %2, align 4
  br label %30

30:                                               ; preds = %25, %21, %13, %9
  %31 = load i32, ptr %2, align 4
  ret i32 %31
}

; Function Attrs: inlinehint nounwind uwtable
define internal i64 @MEM_readST(ptr noundef %0) #3 {
  %2 = alloca ptr, align 8
  store ptr %0, ptr %2, align 8, !tbaa !9
  %3 = load ptr, ptr %2, align 8, !tbaa !9
  %4 = load i64, ptr %3, align 1, !tbaa !26
  ret i64 %4
}

; Function Attrs: inlinehint nounwind uwtable
define internal i64 @ZSTD_count(ptr noundef %0, ptr noundef %1, ptr noundef %2) #3 {
  %4 = alloca i64, align 8
  %5 = alloca ptr, align 8
  %6 = alloca ptr, align 8
  %7 = alloca ptr, align 8
  %8 = alloca ptr, align 8
  %9 = alloca ptr, align 8
  %10 = alloca i64, align 8
  %11 = alloca i32, align 4
  %12 = alloca i64, align 8
  store ptr %0, ptr %5, align 8, !tbaa !24
  store ptr %1, ptr %6, align 8, !tbaa !24
  store ptr %2, ptr %7, align 8, !tbaa !24
  call void @llvm.lifetime.start.p0(i64 8, ptr %8) #9
  %13 = load ptr, ptr %5, align 8, !tbaa !24
  store ptr %13, ptr %8, align 8, !tbaa !24
  call void @llvm.lifetime.start.p0(i64 8, ptr %9) #9
  %14 = load ptr, ptr %7, align 8, !tbaa !24
  %15 = getelementptr inbounds i8, ptr %14, i64 -7
  store ptr %15, ptr %9, align 8, !tbaa !24
  %16 = load ptr, ptr %5, align 8, !tbaa !24
  %17 = load ptr, ptr %9, align 8, !tbaa !24
  %18 = icmp ult ptr %16, %17
  br i1 %18, label %19, label %70

19:                                               ; preds = %3
  call void @llvm.lifetime.start.p0(i64 8, ptr %10) #9
  %20 = load ptr, ptr %6, align 8, !tbaa !24
  %21 = call i64 @MEM_readST(ptr noundef %20)
  %22 = load ptr, ptr %5, align 8, !tbaa !24
  %23 = call i64 @MEM_readST(ptr noundef %22)
  %24 = xor i64 %21, %23
  store i64 %24, ptr %10, align 8, !tbaa !26
  %25 = load i64, ptr %10, align 8, !tbaa !26
  %26 = icmp ne i64 %25, 0
  br i1 %26, label %27, label %31

27:                                               ; preds = %19
  %28 = load i64, ptr %10, align 8, !tbaa !26
  %29 = call i32 @ZSTD_NbCommonBytes(i64 noundef %28)
  %30 = zext i32 %29 to i64
  store i64 %30, ptr %4, align 8
  store i32 1, ptr %11, align 4
  br label %32

31:                                               ; preds = %19
  store i32 0, ptr %11, align 4
  br label %32

32:                                               ; preds = %31, %27
  call void @llvm.lifetime.end.p0(i64 8, ptr %10) #9
  %33 = load i32, ptr %11, align 4
  switch i32 %33, label %128 [
    i32 0, label %34
  ]

34:                                               ; preds = %32
  %35 = load ptr, ptr %5, align 8, !tbaa !24
  %36 = getelementptr inbounds nuw i8, ptr %35, i64 8
  store ptr %36, ptr %5, align 8, !tbaa !24
  %37 = load ptr, ptr %6, align 8, !tbaa !24
  %38 = getelementptr inbounds nuw i8, ptr %37, i64 8
  store ptr %38, ptr %6, align 8, !tbaa !24
  br label %39

39:                                               ; preds = %67, %34
  %40 = load ptr, ptr %5, align 8, !tbaa !24
  %41 = load ptr, ptr %9, align 8, !tbaa !24
  %42 = icmp ult ptr %40, %41
  br i1 %42, label %43, label %69

43:                                               ; preds = %39
  call void @llvm.lifetime.start.p0(i64 8, ptr %12) #9
  %44 = load ptr, ptr %6, align 8, !tbaa !24
  %45 = call i64 @MEM_readST(ptr noundef %44)
  %46 = load ptr, ptr %5, align 8, !tbaa !24
  %47 = call i64 @MEM_readST(ptr noundef %46)
  %48 = xor i64 %45, %47
  store i64 %48, ptr %12, align 8, !tbaa !26
  %49 = load i64, ptr %12, align 8, !tbaa !26
  %50 = icmp ne i64 %49, 0
  br i1 %50, label %56, label %51

51:                                               ; preds = %43
  %52 = load ptr, ptr %5, align 8, !tbaa !24
  %53 = getelementptr inbounds nuw i8, ptr %52, i64 8
  store ptr %53, ptr %5, align 8, !tbaa !24
  %54 = load ptr, ptr %6, align 8, !tbaa !24
  %55 = getelementptr inbounds nuw i8, ptr %54, i64 8
  store ptr %55, ptr %6, align 8, !tbaa !24
  store i32 2, ptr %11, align 4
  br label %67, !llvm.loop !41

56:                                               ; preds = %43
  %57 = load i64, ptr %12, align 8, !tbaa !26
  %58 = call i32 @ZSTD_NbCommonBytes(i64 noundef %57)
  %59 = load ptr, ptr %5, align 8, !tbaa !24
  %60 = zext i32 %58 to i64
  %61 = getelementptr inbounds nuw i8, ptr %59, i64 %60
  store ptr %61, ptr %5, align 8, !tbaa !24
  %62 = load ptr, ptr %5, align 8, !tbaa !24
  %63 = load ptr, ptr %8, align 8, !tbaa !24
  %64 = ptrtoint ptr %62 to i64
  %65 = ptrtoint ptr %63 to i64
  %66 = sub i64 %64, %65
  store i64 %66, ptr %4, align 8
  store i32 1, ptr %11, align 4
  br label %67

67:                                               ; preds = %56, %51
  call void @llvm.lifetime.end.p0(i64 8, ptr %12) #9
  %68 = load i32, ptr %11, align 4
  switch i32 %68, label %128 [
    i32 2, label %39
  ]

69:                                               ; preds = %39
  br label %70

70:                                               ; preds = %69, %3
  %71 = call i32 @MEM_64bits()
  %72 = icmp ne i32 %71, 0
  br i1 %72, label %73, label %89

73:                                               ; preds = %70
  %74 = load ptr, ptr %5, align 8, !tbaa !24
  %75 = load ptr, ptr %7, align 8, !tbaa !24
  %76 = getelementptr inbounds i8, ptr %75, i64 -3
  %77 = icmp ult ptr %74, %76
  br i1 %77, label %78, label %89

78:                                               ; preds = %73
  %79 = load ptr, ptr %6, align 8, !tbaa !24
  %80 = call i32 @MEM_read32(ptr noundef %79)
  %81 = load ptr, ptr %5, align 8, !tbaa !24
  %82 = call i32 @MEM_read32(ptr noundef %81)
  %83 = icmp eq i32 %80, %82
  br i1 %83, label %84, label %89

84:                                               ; preds = %78
  %85 = load ptr, ptr %5, align 8, !tbaa !24
  %86 = getelementptr inbounds i8, ptr %85, i64 4
  store ptr %86, ptr %5, align 8, !tbaa !24
  %87 = load ptr, ptr %6, align 8, !tbaa !24
  %88 = getelementptr inbounds i8, ptr %87, i64 4
  store ptr %88, ptr %6, align 8, !tbaa !24
  br label %89

89:                                               ; preds = %84, %78, %73, %70
  %90 = load ptr, ptr %5, align 8, !tbaa !24
  %91 = load ptr, ptr %7, align 8, !tbaa !24
  %92 = getelementptr inbounds i8, ptr %91, i64 -1
  %93 = icmp ult ptr %90, %92
  br i1 %93, label %94, label %107

94:                                               ; preds = %89
  %95 = load ptr, ptr %6, align 8, !tbaa !24
  %96 = call zeroext i16 @MEM_read16(ptr noundef %95)
  %97 = zext i16 %96 to i32
  %98 = load ptr, ptr %5, align 8, !tbaa !24
  %99 = call zeroext i16 @MEM_read16(ptr noundef %98)
  %100 = zext i16 %99 to i32
  %101 = icmp eq i32 %97, %100
  br i1 %101, label %102, label %107

102:                                              ; preds = %94
  %103 = load ptr, ptr %5, align 8, !tbaa !24
  %104 = getelementptr inbounds i8, ptr %103, i64 2
  store ptr %104, ptr %5, align 8, !tbaa !24
  %105 = load ptr, ptr %6, align 8, !tbaa !24
  %106 = getelementptr inbounds i8, ptr %105, i64 2
  store ptr %106, ptr %6, align 8, !tbaa !24
  br label %107

107:                                              ; preds = %102, %94, %89
  %108 = load ptr, ptr %5, align 8, !tbaa !24
  %109 = load ptr, ptr %7, align 8, !tbaa !24
  %110 = icmp ult ptr %108, %109
  br i1 %110, label %111, label %122

111:                                              ; preds = %107
  %112 = load ptr, ptr %6, align 8, !tbaa !24
  %113 = load i8, ptr %112, align 1, !tbaa !36
  %114 = zext i8 %113 to i32
  %115 = load ptr, ptr %5, align 8, !tbaa !24
  %116 = load i8, ptr %115, align 1, !tbaa !36
  %117 = zext i8 %116 to i32
  %118 = icmp eq i32 %114, %117
  br i1 %118, label %119, label %122

119:                                              ; preds = %111
  %120 = load ptr, ptr %5, align 8, !tbaa !24
  %121 = getelementptr inbounds nuw i8, ptr %120, i32 1
  store ptr %121, ptr %5, align 8, !tbaa !24
  br label %122

122:                                              ; preds = %119, %111, %107
  %123 = load ptr, ptr %5, align 8, !tbaa !24
  %124 = load ptr, ptr %8, align 8, !tbaa !24
  %125 = ptrtoint ptr %123 to i64
  %126 = ptrtoint ptr %124 to i64
  %127 = sub i64 %125, %126
  store i64 %127, ptr %4, align 8
  store i32 1, ptr %11, align 4
  br label %128

128:                                              ; preds = %122, %67, %32
  call void @llvm.lifetime.end.p0(i64 8, ptr %9) #9
  call void @llvm.lifetime.end.p0(i64 8, ptr %8) #9
  %129 = load i64, ptr %4, align 8
  ret i64 %129
}

; Function Attrs: inlinehint nounwind uwtable
define internal i64 @ZSTD_count_2segments(ptr noundef %0, ptr noundef %1, ptr noundef %2, ptr noundef %3, ptr noundef %4) #3 {
  %6 = alloca i64, align 8
  %7 = alloca ptr, align 8
  %8 = alloca ptr, align 8
  %9 = alloca ptr, align 8
  %10 = alloca ptr, align 8
  %11 = alloca ptr, align 8
  %12 = alloca ptr, align 8
  %13 = alloca i64, align 8
  %14 = alloca i32, align 4
  store ptr %0, ptr %7, align 8, !tbaa !24
  store ptr %1, ptr %8, align 8, !tbaa !24
  store ptr %2, ptr %9, align 8, !tbaa !24
  store ptr %3, ptr %10, align 8, !tbaa !24
  store ptr %4, ptr %11, align 8, !tbaa !24
  call void @llvm.lifetime.start.p0(i64 8, ptr %12) #9
  %15 = load ptr, ptr %7, align 8, !tbaa !24
  %16 = load ptr, ptr %10, align 8, !tbaa !24
  %17 = load ptr, ptr %8, align 8, !tbaa !24
  %18 = ptrtoint ptr %16 to i64
  %19 = ptrtoint ptr %17 to i64
  %20 = sub i64 %18, %19
  %21 = getelementptr inbounds i8, ptr %15, i64 %20
  %22 = load ptr, ptr %9, align 8, !tbaa !24
  %23 = icmp ult ptr %21, %22
  br i1 %23, label %24, label %32

24:                                               ; preds = %5
  %25 = load ptr, ptr %7, align 8, !tbaa !24
  %26 = load ptr, ptr %10, align 8, !tbaa !24
  %27 = load ptr, ptr %8, align 8, !tbaa !24
  %28 = ptrtoint ptr %26 to i64
  %29 = ptrtoint ptr %27 to i64
  %30 = sub i64 %28, %29
  %31 = getelementptr inbounds i8, ptr %25, i64 %30
  br label %34

32:                                               ; preds = %5
  %33 = load ptr, ptr %9, align 8, !tbaa !24
  br label %34

34:                                               ; preds = %32, %24
  %35 = phi ptr [ %31, %24 ], [ %33, %32 ]
  store ptr %35, ptr %12, align 8, !tbaa !24
  call void @llvm.lifetime.start.p0(i64 8, ptr %13) #9
  %36 = load ptr, ptr %7, align 8, !tbaa !24
  %37 = load ptr, ptr %8, align 8, !tbaa !24
  %38 = load ptr, ptr %12, align 8, !tbaa !24
  %39 = call i64 @ZSTD_count(ptr noundef %36, ptr noundef %37, ptr noundef %38)
  store i64 %39, ptr %13, align 8, !tbaa !26
  %40 = load ptr, ptr %8, align 8, !tbaa !24
  %41 = load i64, ptr %13, align 8, !tbaa !26
  %42 = getelementptr inbounds nuw i8, ptr %40, i64 %41
  %43 = load ptr, ptr %10, align 8, !tbaa !24
  %44 = icmp ne ptr %42, %43
  br i1 %44, label %45, label %47

45:                                               ; preds = %34
  %46 = load i64, ptr %13, align 8, !tbaa !26
  store i64 %46, ptr %6, align 8
  store i32 1, ptr %14, align 4
  br label %56

47:                                               ; preds = %34
  %48 = load i64, ptr %13, align 8, !tbaa !26
  %49 = load ptr, ptr %7, align 8, !tbaa !24
  %50 = load i64, ptr %13, align 8, !tbaa !26
  %51 = getelementptr inbounds nuw i8, ptr %49, i64 %50
  %52 = load ptr, ptr %11, align 8, !tbaa !24
  %53 = load ptr, ptr %9, align 8, !tbaa !24
  %54 = call i64 @ZSTD_count(ptr noundef %51, ptr noundef %52, ptr noundef %53)
  %55 = add i64 %48, %54
  store i64 %55, ptr %6, align 8
  store i32 1, ptr %14, align 4
  br label %56

56:                                               ; preds = %47, %45
  call void @llvm.lifetime.end.p0(i64 8, ptr %13) #9
  call void @llvm.lifetime.end.p0(i64 8, ptr %12) #9
  %57 = load i64, ptr %6, align 8
  ret i64 %57
}